; Function Attrs: mustprogress uwtable
define hidden void @_ZNK5osgeo4proj3crs11CompoundCRS13_shallowCloneEv(ptr dead_on_unwind noalias nocapture writable writeonly sret(%"class.dropbox::oxygen::nn.96") align 8 %0, ptr noundef nonnull align 8 dereferenceable(80) %1) unnamed_addr #6 align 2 personality ptr @__gxx_personality_v0 {
  %3 = alloca %"class.dropbox::oxygen::nn.288", align 16
  %4 = alloca %"struct.osgeo::proj::util::BaseObjectNNPtr", align 8
  call void @_ZN5osgeo4proj3crs11CompoundCRS14nn_make_sharedIS2_JRKS2_EEEN7dropbox6oxygen2nnISt10shared_ptrIT_EEEDpOT0_(ptr dead_on_unwind nonnull writable sret(%"class.dropbox::oxygen::nn.288") align 8 %3, ptr noundef nonnull align 8 dereferenceable(80) %1)
  %5 = load ptr, ptr %3, align 16
  store ptr %5, ptr %4, align 8
  %6 = getelementptr inbounds i8, ptr %4, i64 8
  %7 = getelementptr inbounds i8, ptr %3, i64 8
  %8 = load ptr, ptr %7, align 8
  store ptr %8, ptr %6, align 8
  %.not.i.i.i.i.i = icmp eq ptr %8, null
  br i1 %.not.i.i.i.i.i, label %_ZN5osgeo4proj4util15BaseObjectNNPtrC2INS0_3crs11CompoundCRSEEERKN7dropbox6oxygen2nnISt10shared_ptrIT_EEE.exit, label %9

9:                                                ; preds = %2
  %10 = getelementptr inbounds i8, ptr %8, i64 8
  %11 = load i8, ptr @__libc_single_threaded, align 1
  %.not.i.i.i.i.i.i = icmp eq i8 %11, 0
  br i1 %.not.i.i.i.i.i.i, label %15, label %12

12:                                               ; preds = %9
  %13 = load i32, ptr %10, align 4
  %14 = add nsw i32 %13, 1
  store i32 %14, ptr %10, align 4
  br label %_ZN5osgeo4proj4util15BaseObjectNNPtrC2INS0_3crs11CompoundCRSEEERKN7dropbox6oxygen2nnISt10shared_ptrIT_EEE.exit

15:                                               ; preds = %9
  %16 = atomicrmw volatile add ptr %10, i32 1 acq_rel, align 4
  br label %_ZN5osgeo4proj4util15BaseObjectNNPtrC2INS0_3crs11CompoundCRSEEERKN7dropbox6oxygen2nnISt10shared_ptrIT_EEE.exit

_ZN5osgeo4proj4util15BaseObjectNNPtrC2INS0_3crs11CompoundCRSEEERKN7dropbox6oxygen2nnISt10shared_ptrIT_EEE.exit: ; preds = %15, %12, %2
  invoke void @_ZN5osgeo4proj4util10BaseObject10assignSelfERKNS1_15BaseObjectNNPtrE(ptr noundef nonnull align 8 dereferenceable(16) %5, ptr noundef nonnull align 8 dereferenceable(16) %4)
          to label %_ZN7dropbox6oxygen2nnISt10shared_ptrIN5osgeo4proj3crs11CompoundCRSEEED2Ev.exit unwind label %18

_ZN7dropbox6oxygen2nnISt10shared_ptrIN5osgeo4proj3crs11CompoundCRSEEED2Ev.exit: ; preds = %_ZN5osgeo4proj4util15BaseObjectNNPtrC2INS0_3crs11CompoundCRSEEERKN7dropbox6oxygen2nnISt10shared_ptrIT_EEE.exit
  call void @_ZN5osgeo4proj4util15BaseObjectNNPtrD1Ev(ptr noundef nonnull align 8 dereferenceable(16) %4) #37
  %17 = load <2 x ptr>, ptr %3, align 16
  store <2 x ptr> %17, ptr %0, align 8
  ret void

18:                                               ; preds = %_ZN5osgeo4proj4util15BaseObjectNNPtrC2INS0_3crs11CompoundCRSEEERKN7dropbox6oxygen2nnISt10shared_ptrIT_EEE.exit
  %19 = landingpad { ptr, i32 }
          cleanup
  call void @_ZN5osgeo4proj4util15BaseObjectNNPtrD1Ev(ptr noundef nonnull align 8 dereferenceable(16) %4) #37
  call void @_ZN7dropbox6oxygen2nnISt10shared_ptrIN5osgeo4proj3crs11CompoundCRSEEED2Ev(ptr noundef nonnull align 8 dereferenceable(16) %3) #37
  resume { ptr, i32 } %19
}